target datalayout = "e-m:e-p270:32:32-p271:32:32-p272:64:64-i64:64-i128:128-f80:128-n8:16:32:64-S128"
target triple = "x86_64-pc-linux-gnu"

%"class.llvm::RegBankSelect::InsertPoint.base" = type <{ ptr, i8 }>
%"class.llvm::RegBankSelect::EdgeInsertPoint" = type { %"class.llvm::RegBankSelect::InsertPoint.base", ptr, ptr, ptr }

; Function Attrs: mustprogress nounwind uwtable
define linkonce_odr hidden noundef ptr @_ZN4llvm17MachineBasicBlock17SplitCriticalEdgeEPS0_RNS_4PassEPSt6vectorINS_15SparseBitVectorILj128EEESaIS6_EE(ptr noundef nonnull align 8 dereferenceable(288) %0, ptr noundef %1, ptr noundef nonnull align 8 dereferenceable(28) %2, ptr noundef %3) #1 comdat align 2 {
  %5 = alloca ptr, align 8
  %6 = alloca ptr, align 8
  %7 = alloca ptr, align 8
  %8 = alloca ptr, align 8
  store ptr %0, ptr %5, align 8
  store ptr %1, ptr %6, align 8
  store ptr %2, ptr %7, align 8
  store ptr %3, ptr %8, align 8
  %9 = load ptr, ptr %5, align 8
  %10 = load ptr, ptr %6, align 8
  %11 = load ptr, ptr %7, align 8
  %12 = load ptr, ptr %8, align 8
  %13 = call noundef ptr @_ZN4llvm17MachineBasicBlock17SplitCriticalEdgeEPS0_PNS_4PassEPNS_15AnalysisManagerINS_15MachineFunctionEJEEEPSt6vectorINS_15SparseBitVectorILj128EEESaISA_EE(ptr noundef nonnull align 8 dereferenceable(288) %9, ptr noundef %10, ptr noundef %11, ptr noundef null, ptr noundef %12)
  ret ptr %13
}

; Function Attrs: mustprogress nounwind uwtable
define dso_local void @_ZN4llvm13RegBankSelect15EdgeInsertPoint11materializeEv(ptr noundef nonnull align 8 dereferenceable(40) %0) unnamed_addr #1 align 2 {
  %2 = alloca ptr, align 8
  %3 = alloca ptr, align 8
  store ptr %0, ptr %2, align 8
  %4 = load ptr, ptr %2, align 8
  %5 = getelementptr inbounds nuw %"class.llvm::RegBankSelect::EdgeInsertPoint", ptr %4, i32 0, i32 1
  %6 = load ptr, ptr %5, align 8
  %7 = getelementptr inbounds nuw %"class.llvm::RegBankSelect::EdgeInsertPoint", ptr %4, i32 0, i32 2
  %8 = load ptr, ptr %7, align 8
  %9 = getelementptr inbounds nuw %"class.llvm::RegBankSelect::EdgeInsertPoint", ptr %4, i32 0, i32 3
  %10 = load ptr, ptr %9, align 8
  %11 = call noundef ptr @_ZN4llvm17MachineBasicBlock17SplitCriticalEdgeEPS0_RNS_4PassEPSt6vectorINS_15SparseBitVectorILj128EEESaIS6_EE(ptr noundef nonnull align 8 dereferenceable(288) %6, ptr noundef %8, ptr noundef nonnull align 8 dereferenceable(28) %10, ptr noundef null)
  store ptr %11, ptr %3, align 8
  %12 = load ptr, ptr %3, align 8
  %13 = getelementptr inbounds nuw %"class.llvm::RegBankSelect::EdgeInsertPoint", ptr %4, i32 0, i32 2
  store ptr %12, ptr %13, align 8
  ret void
}