; Function Attrs: mustprogress nounwind uwtable
define dso_local void @_ZN4llvm13RegBankSelect15EdgeInsertPoint11materializeEv(ptr noundef nonnull align 8 captures(none) dereferenceable(40) %0) unnamed_addr #0 align 2 {
  %2 = getelementptr inbounds nuw i8, ptr %0, i64 16
  %3 = load ptr, ptr %2, align 8
  %4 = getelementptr inbounds nuw i8, ptr %0, i64 24
  %5 = load ptr, ptr %4, align 8
  %6 = getelementptr inbounds nuw i8, ptr %0, i64 32
  %7 = load ptr, ptr %6, align 8
  %8 = tail call noundef ptr @_ZN4llvm17MachineBasicBlock17SplitCriticalEdgeEPS0_PNS_4PassEPNS_15AnalysisManagerINS_15MachineFunctionEJEEEPSt6vectorINS_15SparseBitVectorILj128EEESaISA_EE(ptr noundef nonnull align 8 dereferenceable(288) %3, ptr noundef %5, ptr noundef nonnull align 8 dereferenceable(28) %7, ptr noundef null, ptr noundef null) #21
  store ptr %8, ptr %4, align 8
  ret void
}